; Function Attrs: nounwind uwtable
define range(i32 0, 2) i32 @ossl_quic_wire_decode_frame_new_conn_id(ptr noundef captures(none) %0, ptr noundef captures(none) %1) local_unnamed_addr #2 {
  %3 = getelementptr i8, ptr %0, i64 8
  %.val.i.i.i = load i64, ptr %3, align 8, !tbaa !52
  %4 = icmp eq i64 %.val.i.i.i, 0
  br i1 %4, label %expect_frame_header.exit.thread, label %5

5:                                                ; preds = %2
  %6 = load ptr, ptr %0, align 8, !tbaa !54
  %7 = load i8, ptr %6, align 1, !tbaa !55
  %8 = lshr i8 %7, 6
  %9 = zext nneg i8 %8 to i32
  %10 = shl nuw nsw i32 1, %9
  %11 = zext nneg i32 %10 to i64
  %12 = icmp ult i64 %.val.i.i.i, %11
  br i1 %12, label %expect_frame_header.exit.thread, label %expect_frame_header.exit

expect_frame_header.exit:                         ; preds = %5
  %13 = tail call i64 @ossl_quic_vlint_decode_unchecked(ptr noundef nonnull %6) #12
  %14 = load ptr, ptr %0, align 8, !tbaa !54
  %15 = getelementptr inbounds nuw i8, ptr %14, i64 %11
  store ptr %15, ptr %0, align 8, !tbaa !54
  %16 = load i64, ptr %3, align 8, !tbaa !52
  %17 = sub i64 %16, %11
  store i64 %17, ptr %3, align 8, !tbaa !52
  %.not2.i.not = icmp ne i64 %13, 24
  %18 = icmp eq i64 %16, %11
  %or.cond = select i1 %.not2.i.not, i1 true, i1 %18
  br i1 %or.cond, label %expect_frame_header.exit.thread, label %19

19:                                               ; preds = %expect_frame_header.exit
  %20 = load i8, ptr %15, align 1, !tbaa !55
  %21 = lshr i8 %20, 6
  %22 = zext nneg i8 %21 to i32
  %23 = shl nuw nsw i32 1, %22
  %24 = zext nneg i32 %23 to i64
  %25 = icmp ult i64 %17, %24
  br i1 %25, label %expect_frame_header.exit.thread, label %26

26:                                               ; preds = %19
  %27 = tail call i64 @ossl_quic_vlint_decode_unchecked(ptr noundef nonnull %15) #12
  store i64 %27, ptr %1, align 8, !tbaa !56
  %28 = load ptr, ptr %0, align 8, !tbaa !54
  %29 = getelementptr inbounds nuw i8, ptr %28, i64 %24
  store ptr %29, ptr %0, align 8, !tbaa !54
  %30 = load i64, ptr %3, align 8, !tbaa !52
  %31 = sub i64 %30, %24
  store i64 %31, ptr %3, align 8, !tbaa !52
  %32 = getelementptr inbounds nuw i8, ptr %1, i64 8
  %33 = icmp eq i64 %30, %24
  br i1 %33, label %expect_frame_header.exit.thread, label %34

34:                                               ; preds = %26
  %35 = load i8, ptr %29, align 1, !tbaa !55
  %36 = lshr i8 %35, 6
  %37 = zext nneg i8 %36 to i32
  %38 = shl nuw nsw i32 1, %37
  %39 = zext nneg i32 %38 to i64
  %40 = icmp ult i64 %31, %39
  br i1 %40, label %expect_frame_header.exit.thread, label %41

41:                                               ; preds = %34
  %42 = tail call i64 @ossl_quic_vlint_decode_unchecked(ptr noundef nonnull %29) #12
  store i64 %42, ptr %32, align 8, !tbaa !56
  %43 = load ptr, ptr %0, align 8, !tbaa !54
  %44 = getelementptr inbounds nuw i8, ptr %43, i64 %39
  store ptr %44, ptr %0, align 8, !tbaa !54
  %45 = load i64, ptr %3, align 8, !tbaa !52
  %46 = sub i64 %45, %39
  store i64 %46, ptr %3, align 8, !tbaa !52
  %47 = load i64, ptr %1, align 8, !tbaa !44
  %48 = icmp ult i64 %47, %42
  %.not.i.i = icmp eq i64 %45, %39
  %or.cond53 = select i1 %48, i1 true, i1 %.not.i.i
  br i1 %or.cond53, label %expect_frame_header.exit.thread, label %PACKET_get_1.exit

PACKET_get_1.exit:                                ; preds = %41
  %49 = load i8, ptr %44, align 1, !tbaa !55
  %50 = zext i8 %49 to i32
  %51 = getelementptr inbounds nuw i8, ptr %44, i64 1
  store ptr %51, ptr %0, align 8, !tbaa !54
  %52 = add i64 %46, -1
  store i64 %52, ptr %3, align 8, !tbaa !52
  %53 = add nsw i32 %50, -21
  %54 = icmp ult i32 %53, -20
  br i1 %54, label %expect_frame_header.exit.thread, label %55

55:                                               ; preds = %PACKET_get_1.exit
  %56 = getelementptr inbounds nuw i8, ptr %1, i64 16
  store i8 %49, ptr %56, align 8, !tbaa !40
  %57 = getelementptr inbounds nuw i8, ptr %1, i64 17
  %58 = zext i8 %49 to i64
  %59 = icmp ult i64 %52, %58
  br i1 %59, label %expect_frame_header.exit.thread, label %60

60:                                               ; preds = %55
  tail call void @llvm.memcpy.p0.p0.i64(ptr nonnull align 1 %57, ptr nonnull align 1 %51, i64 range(i64 0, 4294967296) %58, i1 false)
  %61 = load ptr, ptr %0, align 8, !tbaa !54
  %62 = getelementptr inbounds nuw i8, ptr %61, i64 %58
  store ptr %62, ptr %0, align 8, !tbaa !54
  %63 = load i64, ptr %3, align 8, !tbaa !52
  %64 = sub i64 %63, %58
  store i64 %64, ptr %3, align 8, !tbaa !52
  %65 = icmp ult i8 %49, 20
  br i1 %65, label %66, label %70

66:                                               ; preds = %60
  %67 = getelementptr inbounds nuw i8, ptr %57, i64 %58
  %68 = sub nuw nsw i32 20, %50
  %69 = zext nneg i32 %68 to i64
  tail call void @llvm.memset.p0.i64(ptr nonnull align 1 %67, i8 0, i64 %69, i1 false)
  %.val.i.i30.pr = load i64, ptr %3, align 8, !tbaa !52
  br label %70

70:                                               ; preds = %66, %60
  %.val.i.i30 = phi i64 [ %.val.i.i30.pr, %66 ], [ %64, %60 ]
  %71 = icmp ult i64 %.val.i.i30, 16
  br i1 %71, label %expect_frame_header.exit.thread, label %PACKET_copy_bytes.exit32

PACKET_copy_bytes.exit32:                         ; preds = %70
  %72 = getelementptr inbounds nuw i8, ptr %1, i64 37
  %73 = load ptr, ptr %0, align 8, !tbaa !54
  tail call void @llvm.memcpy.p0.p0.i64(ptr noundef nonnull align 1 dereferenceable(16) %72, ptr noundef nonnull align 1 dereferenceable(16) %73, i64 range(i64 0, 4294967296) 16, i1 false)
  %74 = load ptr, ptr %0, align 8, !tbaa !54
  %75 = getelementptr inbounds nuw i8, ptr %74, i64 16
  store ptr %75, ptr %0, align 8, !tbaa !54
  %76 = load i64, ptr %3, align 8, !tbaa !52
  %77 = add i64 %76, -16
  store i64 %77, ptr %3, align 8, !tbaa !52
  br label %expect_frame_header.exit.thread

expect_frame_header.exit.thread:                  ; preds = %55, %34, %26, %19, %5, %2, %PACKET_copy_bytes.exit32, %70, %expect_frame_header.exit, %41, %PACKET_get_1.exit
  %.0 = phi i32 [ 0, %PACKET_get_1.exit ], [ 0, %41 ], [ 0, %expect_frame_header.exit ], [ 1, %PACKET_copy_bytes.exit32 ], [ 0, %70 ], [ 0, %2 ], [ 0, %5 ], [ 0, %19 ], [ 0, %26 ], [ 0, %34 ], [ 0, %55 ]
  ret i32 %.0
}